


ARM Macro Assembler    Page 1 


    1 00000000         ;-----------------------------------------
    2 00000000         ; Student Name : Kim Hyeon Ji
    3 00000000         ; Student ID : 2013722058 
    4 00000000         ; Date : 2015.11.22
    5 00000000         ;-----------------------------------------
    6 00000000         ; Register Description:
    7 00000000         ; R0  : Random data's first address
    8 00000000         ; R1  :  Search data's first address
    9 00000000         ; R2  :  
   10 00000000         ; R3  : 
   11 00000000         ; R4  : 
   12 00000000         ; R5  : 
   13 00000000         ; R6  :
   14 00000000         ; R7  : 
   15 00000000         ; R8  : 
   16 00000000         ; R9  :
   17 00000000         ; R10 : Result address
   18 00000000         ; R11 : Result address copy
   19 00000000         ; R12 :  
   20 00000000         ;-----------------------------------------
   21 00000000         
   22 00000000         ;-----------------------------------------
   23 00000000         ;CODE AREA
   24 00000000         ;-----------------------------------------
   25 00000000                 AREA             ARMex, CODE, READWRITE
   26 00000000                 ENTRY
   27 00000000         
   28 00000000         Start
   29 00000000 E59F034C        LDR              r0, =Random_data
   30 00000004 E59F134C        LDR              r1, = Search_data
   31 00000008 E59FA340        LDR              r10, Result_address
   32 0000000C E1A0B00A        MOV              r11, r10    ;60000000¹øÁö
   33 00000010 E59FD344        LDR              sp, =0x1000
   34 00000014         
   35 00000014         ;-----------------------------------------
   36 00000014         ; Register Description:
   37 00000014         ; R0  : temporary address
   38 00000014         ; R1  :  Search data's first address
   39 00000014         ; R2  : original string (including #)  
   40 00000014         ; R3  : original string (including #)
   41 00000014         ; R4  :  original string (including #)
   42 00000014         ; R5  :  original string (including #)
   43 00000014         ; R6  : original string (including #)
   44 00000014         ; R7  : 
   45 00000014         ; R8  : 
   46 00000014         ; R9  :
   47 00000014         ; R10 : Result address after storing
   48 00000014         ; R11 : Result address copy
   49 00000014         ; R12 :  
   50 00000014         ;-----------------------------------------
   51 00000014         
   52 00000014         ;deleting "#" and store in 0x50000000
   53 00000014         Load
   54 00000014 E8B0007C        LDMFD            r0!, {r2-r6} ;load strings into
                                                             r2- r6
   55 00000018         
   56 00000018         ;delete #
   57 00000018 E1A03423        MOV              r3, r3, LSR #8 ;r3 : delete las
                                                            t 2 integer



ARM Macro Assembler    Page 2 


   58 0000001C E1A07C04        MOV              r7, r4, LSL #24 ;r7 : r4's last
                                                             2 integer
   59 00000020 E0833007        ADD              r3, r3, r7  ; r3 = r3 + r7
   60 00000024         
   61 00000024 E1A04824        MOV              r4, r4, LSR #16 ;r4 :delete las
                                                            t 4 integers
   62 00000028 E1A07805        MOV              r7, r5, LSL #16 ;r7 : r5's last
                                                             2 integers
   63 0000002C E0844007        ADD              r4, r4, r7  ; r4 = r4 + r7
   64 00000030         
   65 00000030 E1A05C25        MOV              r5, r5, LSR #24 ;r5 : delete la
                                                            st 6 integers
   66 00000034 E1A07406        MOV              r7, r6, LSL #8 ;r7 : r6's last 
                                                            6 integers
   67 00000038 E0855007        ADD              r5, r5, r7  ;r5 =r5+r7
   68 0000003C         
   69 0000003C E8AA003C        STMEA            r10!, {r2-r5} ;store new string
                                                             into r10
   70 00000040         
   71 00000040         ;if address is same with Search_data
   72 00000040 E1500001        CMP              r0, r1
   73 00000044 A8AD0800        STMEAGE          sp!, {r11}  ;start point push i
                                                            n stack
   74 00000048 A8AD0400        STMEAGE          sp!, {r10}  ;end point push in 
                                                            stack
   75 0000004C 0A000000        BEQ              Setting     ;go Setting
   76 00000050         
   77 00000050 EAFFFFEF        B                Load        ;Loop
   78 00000054         
   79 00000054         ;-----------------------------------------
   80 00000054         ; Register Description:
   81 00000054         ; R0  : sorting start point
   82 00000054         ; R1  : sorting end point
   83 00000054         ; R2  : pivot's address
   84 00000054         ; R3  : i
   85 00000054         ; R4  : j
   86 00000054         ; R5  : start value
   87 00000054         ; R6  : end value
   88 00000054         ; R7  : pivot's value
   89 00000054         ; R8  : 
   90 00000054         ; R9  :
   91 00000054         ; R10 : pivot's shifted value
   92 00000054         ; R11 :
   93 00000054         ; R12 :   0x1000
   94 00000054         ;-----------------------------------------
   95 00000054         Setting
   96 00000054         
   97 00000054         ;Search checker2
   98 00000054 E35D0A02        CMP              sp, #0x2000
   99 00000058 A3A04A02        LDRGE            r4, =0x2000 ;if sp >=2000, r4 =
                                                             0x2000-4, sp = 0x1
                                                            000, r0=0 , go Sear
                                                            ch
  100 0000005C A2444004        SUBGE            r4, r4, #4
  101 00000060 A59FD2F4        LDRGE            sp, =0x1000
  102 00000064 A3A00000        MOVGE            r0, #0
  103 00000068 AA000058        BGE              Search
  104 0000006C         
  105 0000006C E93D0002        LDMEA            sp!, {R1}   ; end point pop in 



ARM Macro Assembler    Page 3 


                                                            stack
  106 00000070 E93D0001        LDMEA            sp!, {R0}   ;  start point pop 
                                                            in stack
  107 00000074         
  108 00000074 E1500001        CMP              r0, r1      ;if start and end i
                                                            s same, pop again
  109 00000078 0AFFFFF5        BEQ              Setting
  110 0000007C         
  111 0000007C E1500001        CMP              r0,r1       ;if r0>r1, change r
                                                            0 and r1
  112 00000080 C93D0002        LDMEAGT          sp!, {r1}
  113 00000084 C93D0001        LDMEAGT          sp!, {r0}
  114 00000088 C1A03001        MOVGT            r3, r1
  115 0000008C C1A01000        MOVGT            r1, r0
  116 00000090 C1A00003        MOVGT            r0,r3
  117 00000094         
  118 00000094         ;Search checker1
  119 00000094 E3A0CA01        MOV              r12, #0x1000 ;r12 = 0x1000 
  120 00000098 E15D000C        CMP              sp, r12     ;sp <=0x1000 -> del
                                                            ete Search data
  121 0000009C B59F02B4        LDRLT            r0, =Search_data
  122 000000A0 B2801F41        ADDLT            r1, r0, #0x104
  123 000000A4 B3A0AA02        MOVLT            r10, #0x2000
  124 000000A8 B59FD2B4        LDRLT            sp, =0x2500
  125 000000AC BAFFFFD8        BLT              Load
  126 000000B0         
  127 000000B0         ;pivot setting
  128 000000B0 E0802001        ADD              r2, r0, r1  ;pivot = (start+end
                                                            )/2
  129 000000B4 E1A020A2        MOV              r2, r2, LSR#1
  130 000000B8 E1A03F02        MOV              r3, r2, LSL#30 ;if this is 2, p
                                                            ivot-2.
  131 000000BC E1A03F23        MOV              r3, r3, LSR#30
  132 000000C0 E3530002        CMP              r3, #2
  133 000000C4 02422002        SUBEQ            r2, r2, #2
  134 000000C8         
  135 000000C8         ;pivot swap
  136 000000C8 E5905000        LDR              r5, [r0]    ; start : r5 in r0,
                                                             pivot : r7 in r2
  137 000000CC E5927000        LDR              r7, [r2]
  138 000000D0 E5807000        STR              r7, [r0]    ; swap r7 in r0, r5
                                                             in r2
  139 000000D4 E5825000        STR              r5, [r2]
  140 000000D8         
  141 000000D8         ;i, j setting
  142 000000D8 E1A03000        MOV              r3, r0      ;first i is start p
                                                            oint
  143 000000DC E1A04001        MOV              r4, r1      ;first j is end poi
                                                            nt
  144 000000E0         
  145 000000E0         ;shift pivot's value
  146 000000E0 E1A0A007        MOV              r10, r7
  147 000000E4 E1A05C0A        MOV              r5, r10, LSL #24 ;r4 = r10's la
                                                            st 2 integer
  148 000000E8 E1A0A42A        MOV              r10, r10, LSR #8 ;delete r10's 
                                                            last 2 integer
  149 000000EC         
  150 000000EC E1A06C0A        MOV              r6, r10, LSL #24 ;r6 = r10's la
                                                            st 2 integer



ARM Macro Assembler    Page 4 


  151 000000F0 E1A06426        MOV              r6, r6, LSR #8 
                                                            ;shift 2 integers
  152 000000F4 E1A0A42A        MOV              r10, r10, LSR #8 ;delete r10's 
                                                            last 2 integer
  153 000000F8         
  154 000000F8 E0855006        ADD              r5, r5, r6  ;r5 = r5+r6
  155 000000FC         
  156 000000FC E1A06C0A        MOV              r6, r10, LSL #24 ;r6 = r10's la
                                                            st 2 integer
  157 00000100 E1A0A42A        MOV              r10, r10, LSR #8 ;delete r10's 
                                                            last 2 integer
  158 00000104 E1A06826        MOV              r6, r6, LSR #16 
                                                            ;shift 4integers
  159 00000108         
  160 00000108 E0855006        ADD              r5, r5, r6  ;add
  161 0000010C E08AA005        ADD              r10, r10, r5
  162 00000110         
  163 00000110         
  164 00000110 EAFFFFFF        B                Compare_i   ; go to compare arr
                                                            [i]
  165 00000114         
  166 00000114         ;-----------------------------------------
  167 00000114         ; Register Description:
  168 00000114         ; R0  : sorting start point
  169 00000114         ; R1  : sorting end point
  170 00000114         ; R2  : pivot's address
  171 00000114         ; R3  : i
  172 00000114         ; R4  : j
  173 00000114         ; R5  : start value
  174 00000114         ; R6  : end value
  175 00000114         ; R7  : pivot's value
  176 00000114         ; R8  : arr[i]'s value
  177 00000114         ; R9  :
  178 00000114         ; R10 : pivot's shifted value
  179 00000114         ; R11 : arr[i]'s shifted value
  180 00000114         ; R12 :   
  181 00000114         ;-----------------------------------------
  182 00000114         Compare_i
  183 00000114 E2833004        ADD              r3, r3, #4  ;from the next addr
                                                            ess
  184 00000118 E5938000        LDR              r8, [r3]    ;load into r8
  185 0000011C         
  186 0000011C         ;shift arr[i]
  187 0000011C E1A0B008        MOV              r11, r8
  188 00000120 E1A05C0B        MOV              r5, r11, LSL #24
  189 00000124 E1A0B42B        MOV              r11, r11, LSR #8
  190 00000128 E1A06C0B        MOV              r6, r11, LSL #24
  191 0000012C E1A06426        MOV              r6, r6, LSR #8
  192 00000130 E1A0B42B        MOV              r11, r11, LSR #8
  193 00000134 E0855006        ADD              r5, r5, r6
  194 00000138         
  195 00000138 E1A06C0B        MOV              r6, r11, LSL #24
  196 0000013C E1A0B42B        MOV              r11, r11, LSR #8
  197 00000140 E1A06826        MOV              r6, r6, LSR #16
  198 00000144 E0855006        ADD              r5, r5, r6
  199 00000148 E08BB005        ADD              r11, r11, r5
  200 0000014C         
  201 0000014C         ;piv vs i
  202 0000014C E15A000B        CMP              r10, r11    ;if pivot <= arr[i]



ARM Macro Assembler    Page 5 


                                                            
  203 00000150 DA000002        BLE              Compare_j   ;go compare_j
  204 00000154 C1530001        CMPGT            r3, r1      ;if pivot > arr[i],
                                                             r3 vs r1(if addres
                                                            s is end?)
  205 00000158 DAFFFFED        BLE              Compare_i   ;if address is not 
                                                            same with end, go l
                                                            oop
  206 0000015C CAFFFFFF        BGT              Compare_j   ;if same or larger,
                                                             go compare_j
  207 00000160         
  208 00000160         ;-----------------------------------------
  209 00000160         ; Register Description:
  210 00000160         ; R0  : sorting start point
  211 00000160         ; R1  : sorting end point
  212 00000160         ; R2  : pivot's address
  213 00000160         ; R3  : i
  214 00000160         ; R4  : j
  215 00000160         ; R5  : start value
  216 00000160         ; R6  : end value
  217 00000160         ; R7  : pivot's value
  218 00000160         ; R8  : arr[i]'s value
  219 00000160         ; R9  : arr[j]'s value
  220 00000160         ; R10 : pivot's shifted value
  221 00000160         ; R11 : arr[i]'s shifted value
  222 00000160         ; R12 : arr[j]'s shifted value 
  223 00000160         ;-----------------------------------------
  224 00000160         Compare_j
  225 00000160 E2444004        SUB              r4,r4,#4    ;from the front add
                                                            ress
  226 00000164 E5949000        LDR              r9,[r4]     ;load into r9
  227 00000168         
  228 00000168         ;shift arr[j]
  229 00000168 E1A0C009        MOV              r12, r9
  230 0000016C E1A05C0C        MOV              r5, r12, LSL #24
  231 00000170 E1A0C42C        MOV              r12, r12, LSR #8
  232 00000174 E1A06C0C        MOV              r6, r12, LSL #24
  233 00000178 E1A06426        MOV              r6, r6, LSR #8
  234 0000017C E1A0C42C        MOV              r12, r12, LSR #8
  235 00000180 E0855006        ADD              r5, r5, r6
  236 00000184         
  237 00000184 E1A06C0C        MOV              r6, r12, LSL #24
  238 00000188 E1A0C42C        MOV              r12, r12, LSR #8
  239 0000018C E1A06826        MOV              r6, r6, LSR #16
  240 00000190 E0855006        ADD              r5, r5, r6
  241 00000194 E08CC005        ADD              r12, r12, r5
  242 00000198         
  243 00000198         ;piv vs j
  244 00000198 E15A000C        CMP              r10, r12    ;piv <arr[j], go lo
                                                            op
  245 0000019C BAFFFFEF        BLT              Compare_j
  246 000001A0 A1530004        CMPGE            r3, r4      ; piv>arr[j] && if 
                                                            r3 vsr4
  247 000001A4 D5839000        STRLE            r9, [r3]    ;swap arr[i] & arr[
                                                            j] and go compare_i
                                                            
  248 000001A8 D5848000        STRLE            r8,[r4]
  249 000001AC DAFFFFD8        BLE              Compare_i
  250 000001B0 C5847000        STRGT            r7, [r4]    ;piv's addrerss > j



ARM Macro Assembler    Page 6 


                                                            , swap arr[j] and p
                                                            iv
  251 000001B4 C5809000        STRGT            r9, [r0]
  252 000001B8 C284B004        ADDGT            r11, r4, #4 ;make r11=j+4
  253 000001BC C1A0A004        MOVGT            r10, r4
  254 000001C0 C8AD0001        STMEAGT          sp!, {r0}   ;start address
  255 000001C4 C8AD0C00        STMEAGT          sp!, {r10-r11} ;j address, j+4 
                                                            address
  256 000001C8 C8AD0002        STMEAGT          sp!, {r1}   ;end address
  257 000001CC CAFFFFA0        BGT              Setting     ;go Setting
  258 000001D0         
  259 000001D0         ;-----------------------------------------
  260 000001D0         ; Register Description:
  261 000001D0         ; R0  : length of find string
  262 000001D0         ; R1  : 
  263 000001D0         ; R2  : 
  264 000001D0         ; R3  : 
  265 000001D0         ; R4  : Search_data's address
  266 000001D0         ; R5  : Result_address
  267 000001D0         ; R6  : Result_address+2000
  268 000001D0         ; R7  : 
  269 000001D0         ; R8  : search data's value
  270 000001D0         ; R9  : 
  271 000001D0         ; R10 :
  272 000001D0         ; R11 :search data's shifted value
  273 000001D0         ; R12 : 
  274 000001D0         ;-----------------------------------------
  275 000001D0         Search
  276 000001D0 E2844004        ADD              r4, r4, #4  ;from the next addr
                                                            ess
  277 000001D4 E5948000        LDR              r8,[r4]     ;load into r8
  278 000001D8         
  279 000001D8 E3580000        CMP              r8, #0x0    ;if load data is 0,
                                                             end Search!
  280 000001DC 059F116C        LDREQ            r1, Result_address
  281 000001E0 059FD164        LDREQ            sp,  Result_address1
  282 000001E4 03A0B023        MOVEQ            r11, #0x23
  283 000001E8 08B10F00        LDMFDEQ          r1!, {r8-r11}
  284 000001EC 0A00003B        BEQ              Store
  285 000001F0         
  286 000001F0         ;shift r8
  287 000001F0 E1A0B008        MOV              r11, r8
  288 000001F4 E1A05C0B        MOV              r5, r11, LSL #24
  289 000001F8 E1A0B42B        MOV              r11, r11, LSR #8
  290 000001FC E1A06C0B        MOV              r6, r11, LSL #24
  291 00000200 E1A06426        MOV              r6, r6, LSR #8
  292 00000204 E1A0B42B        MOV              r11, r11, LSR #8
  293 00000208 E0855006        ADD              r5, r5, r6
  294 0000020C         
  295 0000020C E1A06C0B        MOV              r6, r11, LSL #24
  296 00000210 E1A0B42B        MOV              r11, r11, LSR #8
  297 00000214 E1A06826        MOV              r6, r6, LSR #16
  298 00000218 E0855006        ADD              r5, r5, r6
  299 0000021C E08BB005        ADD              r11, r11, r5
  300 00000220         
  301 00000220 E59F5128        LDR              r5, Result_address 
                                                            ;the start point
  302 00000224 E2856E7D        ADD              r6, r5, #2000 ;the end point
  303 00000228 E8AD0020        STMEA            sp!, {r5}   ;push in stack {sta



ARM Macro Assembler    Page 7 


                                                            rt, end}
  304 0000022C E8AD0040        STMEA            sp!, {r6}
  305 00000230         
  306 00000230 EAFFFFFF        B                Compare_Binary ;go Comparing
  307 00000234         
  308 00000234         ;-----------------------------------------
  309 00000234         ; Register Description:
  310 00000234         ; R0  : length of find string
  311 00000234         ; R1  : start address
  312 00000234         ; R2  : end address
  313 00000234         ; R3  : pivot address
  314 00000234         ; R4  : Search_data's address
  315 00000234         ; R5  : Result_address
  316 00000234         ; R6  : Result_address+2000
  317 00000234         ; R7  : pivot's value
  318 00000234         ; R8  : search data's value
  319 00000234         ; R9  : 
  320 00000234         ; R10 :pivot's shifted value
  321 00000234         ; R11 :search data's shifted value
  322 00000234         ; R12 : 
  323 00000234         ;-----------------------------------------
  324 00000234         Compare_Binary                       ;Binary Search
  325 00000234 E93D0004        LDMEA            sp!, {r2}   ; pop 2 pointer {St
                                                            art, end} 
  326 00000238 E93D0002        LDMEA            sp!, {r1}
  327 0000023C         
  328 0000023C E1520001        CMP              r2,r1       ;if start and end i
                                                            s same, go to Searc
                                                            h
  329 00000240 0AFFFFE2        BEQ              Search
  330 00000244         
  331 00000244         ;pivot setting
  332 00000244 E0813002        ADD              r3, r1, r2  ;pivot = (start+end
                                                            )/2
  333 00000248 E1A030A3        MOV              r3, r3, LSR#1
  334 0000024C E1A05F03        MOV              r5, r3, LSL#30
  335 00000250 E1A05F25        MOV              r5, r5, LSR#30
  336 00000254 E3550002        CMP              r5, #2
  337 00000258 02433002        SUBEQ            r3, r3, #2
  338 0000025C         
  339 0000025C         ;piv shift
  340 0000025C E5937000        LDR              r7, [r3]
  341 00000260         
  342 00000260 E1A0A007        MOV              r10, r7
  343 00000264 E1A05C0A        MOV              r5, r10, LSL #24
  344 00000268 E1A0A42A        MOV              r10, r10, LSR #8
  345 0000026C E1A06C0A        MOV              r6, r10, LSL #24
  346 00000270 E1A06426        MOV              r6, r6, LSR #8
  347 00000274 E1A0A42A        MOV              r10, r10, LSR #8
  348 00000278 E0855006        ADD              r5, r5, r6
  349 0000027C         
  350 0000027C E1A06C0A        MOV              r6, r10, LSL #24
  351 00000280 E1A0A42A        MOV              r10, r10, LSR #8
  352 00000284 E1A06826        MOV              r6, r6, LSR #16
  353 00000288 E0855006        ADD              r5, r5, r6
  354 0000028C E08AA005        ADD              r10, r10, r5
  355 00000290         
  356 00000290         ;Compare
  357 00000290 E15A000B        CMP              r10, r11    ;piv vs key



ARM Macro Assembler    Page 8 


  358 00000294 C8AD0002        STMEAGT          sp!, {r1}   ;if piv> key, go to
                                                             {start~piv}
  359 00000298 C8AD0008        STMEAGT          sp!, {r3}
  360 0000029C B2833004        ADDLT            r3, r3, #4  ;piv +=4
  361 000002A0 B8AD0008        STMEALT          sp!, {r3}   ;if piv < key, go t
                                                            o { piv ~ end}
  362 000002A4 B8AD0004        STMEALT          sp!, {r2}
  363 000002A8 01A0C003        MOVEQ            r12, r3     ;if same, go Find
  364 000002AC 0A000000        BEQ              Find        ;to count how many 
                                                            same strings exist
  365 000002B0         
  366 000002B0 EAFFFFDF        B                Compare_Binary ;go Loop
  367 000002B4         
  368 000002B4         ;-----------------------------------------
  369 000002B4         ; Register Description:
  370 000002B4         ; R0  : length of find string
  371 000002B4         ; R1  : start address
  372 000002B4         ; R2  : end address
  373 000002B4         ; R3  : pivot address
  374 000002B4         ; R4  : Search_data's address
  375 000002B4         ; R5  : Result_address
  376 000002B4         ; R6  : Result_address+2000
  377 000002B4         ; R7  : pivot's value
  378 000002B4         ; R8  : search data's value
  379 000002B4         ; R9  : r12's data
  380 000002B4         ; R10 :pivot's shifted value
  381 000002B4         ; R11 :search data's shifted value
  382 000002B4         ; R12 : same data's first appear address
  383 000002B4         ;-----------------------------------------
  384 000002B4         Find                                 ;to find when the s
                                                            ame string starts!
  385 000002B4 E24CC004        SUB              r12, r12, #4 ;go backward
  386 000002B8         
  387 000002B8 E59C9000        LDR              r9, [r12]   ;load data
  388 000002BC         
  389 000002BC E1590007        CMP              r9, r7      ;same string?
  390 000002C0 0AFFFFFB        BEQ              Find        ;if same, go loop
  391 000002C4 1AFFFFFF        BNE              Find2       ;if not same, go Fi
                                                            nd2 to find the las
                                                            t string
  392 000002C8         
  393 000002C8         Find2                                ;to find when the s
                                                            ame string ends!
  394 000002C8 E28CC004        ADD              r12, r12, #4 ;go forward
  395 000002CC         
  396 000002CC E59C9000        LDR              r9, [r12]   ;load data
  397 000002D0         
  398 000002D0 E1590007        CMP              r9, r7      ;same string?
  399 000002D4 02800004        ADDEQ            r0, #4      ;if same, r0+=4, go
                                                             loop
  400 000002D8 0AFFFFFA        BEQ              Find2
  401 000002DC 1AFFFFBB        BNE              Search      ;if not, go Search
  402 000002E0         
  403 000002E0         ;-----------------------------------------
  404 000002E0         ; Register Description:
  405 000002E0         ; R0  : 
  406 000002E0         ; R1  : 0x50000000
  407 000002E0         ; R2  : new string(including #)
  408 000002E0         ; R3  : new string(including #)



ARM Macro Assembler    Page 9 


  409 000002E0         ; R4  : new string(including #)
  410 000002E0         ; R5  : new string(including #)
  411 000002E0         ; R6  : new string(including #)
  412 000002E0         ; R7  : 
  413 000002E0         ; R8  : load string 
  414 000002E0         ; R9  : load string
  415 000002E0         ; R10 :load string
  416 000002E0         ; R11 :load string
  417 000002E0         ; R12 : 
  418 000002E0         ;-----------------------------------------
  419 000002E0         Store                                ;r11 : #
  420 000002E0         ;move into r2-r11 from r8-r11
  421 000002E0 E1A02008        MOV              r2, r8
  422 000002E4 E1A03009        MOV              r3, r9
  423 000002E8 E1A0400A        MOV              r4, r10
  424 000002EC E1A0500B        MOV              r5, r11
  425 000002F0         
  426 000002F0         ;r11 = #
  427 000002F0 E3A0B023        MOV              r11, #0x23
  428 000002F4         
  429 000002F4         ;first
  430 000002F4 E1A08C22        MOV              r8, r2, LSR #24
  431 000002F8 E1A02402        MOV              r2, r2, LSL #8
  432 000002FC E08B2002        ADD              r2, r11, r2
  433 00000300         
  434 00000300         ;second
  435 00000300 E1A09823        MOV              r9, r3, LSR#16
  436 00000304 E1A03803        MOV              r3, r3, LSL #16
  437 00000308 E1A0B40B        MOV              r11, r11, LSL#8
  438 0000030C         
  439 0000030C E08B3003        ADD              r3, r11, r3
  440 00000310 E0833008        ADD              r3, r3, r8
  441 00000314         
  442 00000314         ;third
  443 00000314 E1A0A424        MOV              r10, r4, LSR #8
  444 00000318         
  445 00000318 E1A04C04        MOV              r4, r4, LSL #24
  446 0000031C E1A0B40B        MOV              r11, r11, LSL #8
  447 00000320         
  448 00000320 E0844009        ADD              r4, r4,r9
  449 00000324 E084400B        ADD              r4, r4, r11
  450 00000328         
  451 00000328         ;fifth
  452 00000328 E1A06005        MOV              r6,r5
  453 0000032C         
  454 0000032C         ;fourth
  455 0000032C E1A0B40B        MOV              r11, r11, LSL#8
  456 00000330 E08A500B        ADD              r5, r10, r11
  457 00000334         
  458 00000334         ;load in r8~r11
  459 00000334 E8B10F00        LDMFD            r1!, {r8-r11}
  460 00000338         
  461 00000338         ;store made string
  462 00000338 E8AD007C        STMEA            sp!, {r2-r6}
  463 0000033C         
  464 0000033C         ;if load data is 0, end program
  465 0000033C E3580000        CMP              r8, #0x0
  466 00000340 0A000000        BEQ              END_PROGRAM
  467 00000344 1AFFFFE5        BNE              Store



ARM Macro Assembler    Page 10 


  468 00000348         
  469 00000348         END_PROGRAM
  470 00000348         ;Save result to r0 register
  471 00000348         
  472 00000348 E3A0F000        MOV              pc, #0      ; end program
  473 0000034C         
  474 0000034C 60000000 
                       Result_address1
                               &                &60000000
  475 00000350 50000000 
                       Result_address
                               &                &50000000
  476 00000354         
  477 00000354         ;-----------------------------------------
  478 00000354         ;DATA AREA
  479 00000354         ;-----------------------------------------
  480 00000354 00000000 
              00000000 
              00001000 
              00000000 
              00002500         AREA             data, DATA
  481 00000000         Random_data
  482 00000000 6D 65 73 
              73 23            DCB              109,101,115,115,35
  483 00000005 6C 65 6E 
              64 23            DCB              108,101,110,100,35
  484 0000000A 6D 6F 73 
              74 23            DCB              109,111,115,116,35
  485 0000000F 6D 75 63 
              68 23            DCB              109,117,99,104,35
  486 00000014 74 6F 75 
              72 23            DCB              116,111,117,114,35
  487 00000019 6D 65 6E 
              75 23            DCB              109,101,110,117,35
  488 0000001E 70 61 69 
              6E 23            DCB              112,97,105,110,35
  489 00000023 72 61 74 
              65 23            DCB              114,97,116,101,35
  490 00000028 6C 61 74 
              65 23            DCB              108,97,116,101,35
  491 0000002D 73 75 63 
              68 23            DCB              115,117,99,104,35
  492 00000032 72 75 69 
              6E 23            DCB              114,117,105,110,35
  493 00000037 6C 6F 6E 
              67 23            DCB              108,111,110,103,35
  494 0000003C 73 69 7A 
              65 23            DCB              115,105,122,101,35
  495 00000041 76 6F 69 
              64 23            DCB              118,111,105,100,35
  496 00000046 74 6F 6C 
              6C 23            DCB              116,111,108,108,35
  497 0000004B 70 65 61 
              6B 23            DCB              112,101,97,107,35
  498 00000050 6C 61 6E 
              64 23            DCB              108,97,110,100,35
  499 00000055 73 68 6F 
              74 23            DCB              115,104,111,116,35
  500 0000005A 77 61 6E 



ARM Macro Assembler    Page 11 


              65 23            DCB              119,97,110,101,35
  501 0000005F 70 61 73 
              74 23            DCB              112,97,115,116,35
  502 00000064 77 61 67 
              65 23            DCB              119,97,103,101,35
  503 00000069 6D 65 65 
              74 23            DCB              109,101,101,116,35
  504 0000006E 75 72 67 
              65 23            DCB              117,114,103,101,35
  505 00000073 74 61 73 
              6B 23            DCB              116,97,115,107,35
  506 00000078 72 69 73 
              65 23            DCB              114,105,115,101,35
  507 0000007D 70 61 72 
              6B 23            DCB              112,97,114,107,35
  508 00000082 72 6F 6F 
              66 23            DCB              114,111,111,102,35
  509 00000087 77 6F 72 
              6B 23            DCB              119,111,114,107,35
  510 0000008C 72 65 61 
              6C 23            DCB              114,101,97,108,35
  511 00000091 72 75 73 
              68 23            DCB              114,117,115,104,35
  512 00000096 73 74 69 
              72 23            DCB              115,116,105,114,35
  513 0000009B 70 61 73 
              73 23            DCB              112,97,115,115,35
  514 000000A0 73 65 61 
              74 23            DCB              115,101,97,116,35
  515 000000A5 75 67 6C 
              79 23            DCB              117,103,108,121,35
  516 000000AA 6C 65 61 
              64 23            DCB              108,101,97,100,35
  517 000000AF 73 6F 61 
              72 23            DCB              115,111,97,114,35
  518 000000B4 6A 6F 69 
              6E 23            DCB              106,111,105,110,35
  519 000000B9 6C 65 61 
              64 23            DCB              108,101,97,100,35
  520 000000BE 73 68 6F 
              77 23            DCB              115,104,111,119,35
  521 000000C3 6D 69 6E 
              65 23            DCB              109,105,110,101,35
  522 000000C8 73 69 74 
              65 23            DCB              115,105,116,101,35
  523 000000CD 73 74 65 
              70 23            DCB              115,116,101,112,35
  524 000000D2 77 61 67 
              65 23            DCB              119,97,103,101,35
  525 000000D7 6D 65 61 
              6C 23            DCB              109,101,97,108,35
  526 000000DC 6D 6F 76 
              65 23            DCB              109,111,118,101,35
  527 000000E1 6E 69 63 
              65 23            DCB              110,105,99,101,35
  528 000000E6 6D 69 73 
              73 23            DCB              109,105,115,115,35
  529 000000EB 6C 65 73 
              73 23            DCB              108,101,115,115,35



ARM Macro Assembler    Page 12 


  530 000000F0 6C 65 73 
              73 23            DCB              108,101,115,115,35
  531 000000F5 74 61 6B 
              65 23            DCB              116,97,107,101,35
  532 000000FA 72 65 6E 
              74 23            DCB              114,101,110,116,35
  533 000000FF 6D 6F 76 
              65 23            DCB              109,111,118,101,35
  534 00000104 73 68 69 
              70 23            DCB              115,104,105,112,35
  535 00000109 72 75 6E 
              67 23            DCB              114,117,110,103,35
  536 0000010E 57 65 6C 
              6C 23            DCB              87,101,108,108,35
  537 00000113 6E 65 73 
              74 23            DCB              110,101,115,116,35
  538 00000118 77 65 65 
              64 23            DCB              119,101,101,100,35
  539 0000011D 77 65 61 
              72 23            DCB              119,101,97,114,35
  540 00000122 70 6C 61 
              6E 23            DCB              112,108,97,110,35
  541 00000127 6E 65 65 
              64 23            DCB              110,101,101,100,35
  542 0000012C 6E 6F 72 
              6D 23            DCB              110,111,114,109,35
  543 00000131 73 6F 61 
              72 23            DCB              115,111,97,114,35
  544 00000136 71 75 69 
              74 23            DCB              113,117,105,116,35
  545 0000013B 74 65 72 
              6D 23            DCB              116,101,114,109,35
  546 00000140 72 75 73 
              68 23            DCB              114,117,115,104,35
  547 00000145 73 6F 6D 
              65 23            DCB              115,111,109,101,35
  548 0000014A 73 69 6E 
              6B 23            DCB              115,105,110,107,35
  549 0000014F 72 69 63 
              65 23            DCB              114,105,99,101,35
  550 00000154 73 65 65 
              6D 23            DCB              115,101,101,109,35
  551 00000159 74 6F 6F 
              6C 23            DCB              116,111,111,108,35
  552 0000015E 73 75 72 
              65 23            DCB              115,117,114,101,35
  553 00000163 73 77 61 
              70 23            DCB              115,119,97,112,35
  554 00000168 72 65 61 
              72 23            DCB              114,101,97,114,35
  555 0000016D 76 69 65 
              77 23            DCB              118,105,101,119,35
  556 00000172 6C 69 76 
              65 23            DCB              108,105,118,101,35
  557 00000177 74 72 69 
              70 23            DCB              116,114,105,112,35
  558 0000017C 6C 6F 61 
              6E 23            DCB              108,111,97,110,35
  559 00000181 73 61 6C 



ARM Macro Assembler    Page 13 


              65 23            DCB              115,97,108,101,35
  560 00000186 6E 61 6D 
              65 23            DCB              110,97,109,101,35
  561 0000018B 72 69 73 
              6B 23            DCB              114,105,115,107,35
  562 00000190 6D 69 6E 
              64 23            DCB              109,105,110,100,35
  563 00000195 6C 61 77 
              6E 23            DCB              108,97,119,110,35
  564 0000019A 74 69 6C 
              65 23            DCB              116,105,108,101,35
  565 0000019F 73 68 6F 
              65 23            DCB              115,104,111,101,35
  566 000001A4 74 68 65 
              6E 23            DCB              116,104,101,110,35
  567 000001A9 70 61 67 
              65 23            DCB              112,97,103,101,35
  568 000001AE 74 61 70 
              65 23            DCB              116,97,112,101,35
  569 000001B3 70 6C 61 
              79 23            DCB              112,108,97,121,35
  570 000001B8 73 69 67 
              6E 23            DCB              115,105,103,110,35
  571 000001BD 72 61 63 
              6B 23            DCB              114,97,99,107,35
  572 000001C2 6D 61 74 
              68 23            DCB              109,97,116,104,35
  573 000001C7 6A 75 73 
              74 23            DCB              106,117,115,116,35
  574 000001CC 73 74 65 
              70 23            DCB              115,116,101,112,35
  575 000001D1 74 65 72 
              6D 23            DCB              116,101,114,109,35
  576 000001D6 70 6F 73 
              65 23            DCB              112,111,115,101,35
  577 000001DB 74 72 69 
              6D 23            DCB              116,114,105,109,35
  578 000001E0 76 69 73 
              61 23            DCB              118,105,115,97,35
  579 000001E5 6E 65 61 
              72 23            DCB              110,101,97,114,35
  580 000001EA 6E 61 69 
              6C 23            DCB              110,97,105,108,35
  581 000001EF 70 6F 73 
              74 23            DCB              112,111,115,116,35
  582 000001F4 73 68 75 
              74 23            DCB              115,104,117,116,35
  583 000001F9 76 65 73 
              74 23            DCB              118,101,115,116,35
  584 000001FE 73 74 61 
              79 23            DCB              115,116,97,121,35
  585 00000203 70 6C 75 
              67 23            DCB              112,108,117,103,35
  586 00000208 73 6F 72 
              74 23            DCB              115,111,114,116,35
  587 0000020D 73 65 6C 
              6C 23            DCB              115,101,108,108,35
  588 00000212 70 75 6C 
              6C 23            DCB              112,117,108,108,35



ARM Macro Assembler    Page 14 


  589 00000217 74 75 72 
              6E 23            DCB              116,117,114,110,35
  590 0000021C 6C 65 6E 
              64 23            DCB              108,101,110,100,35
  591 00000221 6D 61 6B 
              65 23            DCB              109,97,107,101,35
  592 00000226 74 79 70 
              65 23            DCB              116,121,112,101,35
  593 0000022B 77 69 73 
              68 23            DCB              119,105,115,104,35
  594 00000230 6D 65 61 
              6E 23            DCB              109,101,97,110,35
  595 00000235 74 6F 6F 
              6C 23            DCB              116,111,111,108,35
  596 0000023A 6E 65 65 
              64 23            DCB              110,101,101,100,35
  597 0000023F 6A 6F 69 
              6E 23            DCB              106,111,105,110,35
  598 00000244 74 65 6E 
              64 23            DCB              116,101,110,100,35
  599 00000249 6C 6F 63 
              6B 23            DCB              108,111,99,107,35
  600 0000024E 74 68 61 
              6E 23            DCB              116,104,97,110,35
  601 00000253 73 6B 69 
              70 23            DCB              115,107,105,112,35
  602 00000258 72 61 74 
              65 23            DCB              114,97,116,101,35
  603 0000025D 6E 6F 74 
              65 23            DCB              110,111,116,101,35
  604 00000262 73 6C 75 
              6D 23            DCB              115,108,117,109,35
  605 00000267 6D 65 73 
              73 23            DCB              109,101,115,115,35
  606 0000026C 6C 65 6E 
              64 23            DCB              108,101,110,100,35
  607 00000271 6D 6F 73 
              74 23            DCB              109,111,115,116,35
  608 00000276 6D 75 63 
              68 23            DCB              109,117,99,104,35
  609 0000027B 74 6F 75 
              72 23            DCB              116,111,117,114,35
  610 00000280 6D 65 6E 
              75 23            DCB              109,101,110,117,35
  611 00000285 70 61 69 
              6E 23            DCB              112,97,105,110,35
  612 0000028A 72 61 74 
              65 23            DCB              114,97,116,101,35
  613 0000028F 6C 61 74 
              65 23            DCB              108,97,116,101,35
  614 00000294 73 75 63 
              68 23            DCB              115,117,99,104,35
  615 00000299 72 75 69 
              6E 23            DCB              114,117,105,110,35
  616 0000029E 6C 6F 6E 
              67 23            DCB              108,111,110,103,35
  617 000002A3 73 69 7A 
              65 23            DCB              115,105,122,101,35
  618 000002A8 76 6F 69 



ARM Macro Assembler    Page 15 


              64 23            DCB              118,111,105,100,35
  619 000002AD 74 6F 6C 
              6C 23            DCB              116,111,108,108,35
  620 000002B2 70 65 61 
              6B 23            DCB              112,101,97,107,35
  621 000002B7 6C 61 6E 
              64 23            DCB              108,97,110,100,35
  622 000002BC 73 68 6F 
              74 23            DCB              115,104,111,116,35
  623 000002C1 77 61 6E 
              65 23            DCB              119,97,110,101,35
  624 000002C6 70 61 73 
              74 23            DCB              112,97,115,116,35
  625 000002CB 77 61 67 
              65 23            DCB              119,97,103,101,35
  626 000002D0 6D 65 65 
              74 23            DCB              109,101,101,116,35
  627 000002D5 75 72 67 
              65 23            DCB              117,114,103,101,35
  628 000002DA 74 61 73 
              6B 23            DCB              116,97,115,107,35
  629 000002DF 72 69 73 
              65 23            DCB              114,105,115,101,35
  630 000002E4 70 61 72 
              6B 23            DCB              112,97,114,107,35
  631 000002E9 72 6F 6F 
              66 23            DCB              114,111,111,102,35
  632 000002EE 77 6F 72 
              6B 23            DCB              119,111,114,107,35
  633 000002F3 72 65 61 
              6C 23            DCB              114,101,97,108,35
  634 000002F8 72 75 73 
              68 23            DCB              114,117,115,104,35
  635 000002FD 73 74 69 
              72 23            DCB              115,116,105,114,35
  636 00000302 70 61 73 
              73 23            DCB              112,97,115,115,35
  637 00000307 73 65 61 
              74 23            DCB              115,101,97,116,35
  638 0000030C 75 67 6C 
              79 23            DCB              117,103,108,121,35
  639 00000311 6C 65 61 
              64 23            DCB              108,101,97,100,35
  640 00000316 73 6F 61 
              72 23            DCB              115,111,97,114,35
  641 0000031B 6A 6F 69 
              6E 23            DCB              106,111,105,110,35
  642 00000320 6C 65 61 
              64 23            DCB              108,101,97,100,35
  643 00000325 73 68 6F 
              77 23            DCB              115,104,111,119,35
  644 0000032A 6D 69 6E 
              65 23            DCB              109,105,110,101,35
  645 0000032F 73 69 74 
              65 23            DCB              115,105,116,101,35
  646 00000334 73 74 65 
              70 23            DCB              115,116,101,112,35
  647 00000339 77 61 67 
              65 23            DCB              119,97,103,101,35



ARM Macro Assembler    Page 16 


  648 0000033E 6D 65 61 
              6C 23            DCB              109,101,97,108,35
  649 00000343 6D 6F 76 
              65 23            DCB              109,111,118,101,35
  650 00000348 6E 69 63 
              65 23            DCB              110,105,99,101,35
  651 0000034D 6D 69 73 
              73 23            DCB              109,105,115,115,35
  652 00000352 6C 65 73 
              73 23            DCB              108,101,115,115,35
  653 00000357 6C 65 73 
              73 23            DCB              108,101,115,115,35
  654 0000035C 74 61 6B 
              65 23            DCB              116,97,107,101,35
  655 00000361 72 65 6E 
              74 23            DCB              114,101,110,116,35
  656 00000366 6D 6F 76 
              65 23            DCB              109,111,118,101,35
  657 0000036B 73 68 69 
              70 23            DCB              115,104,105,112,35
  658 00000370 72 75 6E 
              67 23            DCB              114,117,110,103,35
  659 00000375 57 65 6C 
              6C 23            DCB              87,101,108,108,35
  660 0000037A 6E 65 73 
              74 23            DCB              110,101,115,116,35
  661 0000037F 77 65 65 
              64 23            DCB              119,101,101,100,35
  662 00000384 77 65 61 
              72 23            DCB              119,101,97,114,35
  663 00000389 70 6C 61 
              6E 23            DCB              112,108,97,110,35
  664 0000038E 6E 65 65 
              64 23            DCB              110,101,101,100,35
  665 00000393 6E 6F 72 
              6D 23            DCB              110,111,114,109,35
  666 00000398 73 6F 61 
              72 23            DCB              115,111,97,114,35
  667 0000039D 71 75 69 
              74 23            DCB              113,117,105,116,35
  668 000003A2 74 65 72 
              6D 23            DCB              116,101,114,109,35
  669 000003A7 72 75 73 
              68 23            DCB              114,117,115,104,35
  670 000003AC 73 6F 6D 
              65 23            DCB              115,111,109,101,35
  671 000003B1 73 69 6E 
              6B 23            DCB              115,105,110,107,35
  672 000003B6 72 69 63 
              65 23            DCB              114,105,99,101,35
  673 000003BB 73 65 65 
              6D 23            DCB              115,101,101,109,35
  674 000003C0 74 6F 6F 
              6C 23            DCB              116,111,111,108,35
  675 000003C5 73 75 72 
              65 23            DCB              115,117,114,101,35
  676 000003CA 73 77 61 
              70 23            DCB              115,119,97,112,35
  677 000003CF 72 65 61 



ARM Macro Assembler    Page 17 


              72 23            DCB              114,101,97,114,35
  678 000003D4 76 69 65 
              77 23            DCB              118,105,101,119,35
  679 000003D9 6C 69 76 
              65 23            DCB              108,105,118,101,35
  680 000003DE 74 72 69 
              70 23            DCB              116,114,105,112,35
  681 000003E3 6C 6F 61 
              6E 23            DCB              108,111,97,110,35
  682 000003E8 73 61 6C 
              65 23            DCB              115,97,108,101,35
  683 000003ED 6E 61 6D 
              65 23            DCB              110,97,109,101,35
  684 000003F2 72 69 73 
              6B 23            DCB              114,105,115,107,35
  685 000003F7 6D 69 6E 
              64 23            DCB              109,105,110,100,35
  686 000003FC 6C 61 77 
              6E 23            DCB              108,97,119,110,35
  687 00000401 74 69 6C 
              65 23            DCB              116,105,108,101,35
  688 00000406 73 68 6F 
              65 23            DCB              115,104,111,101,35
  689 0000040B 74 68 65 
              6E 23            DCB              116,104,101,110,35
  690 00000410 70 61 67 
              65 23            DCB              112,97,103,101,35
  691 00000415 74 61 70 
              65 23            DCB              116,97,112,101,35
  692 0000041A 70 6C 61 
              79 23            DCB              112,108,97,121,35
  693 0000041F 73 69 67 
              6E 23            DCB              115,105,103,110,35
  694 00000424 72 61 63 
              6B 23            DCB              114,97,99,107,35
  695 00000429 6D 61 74 
              68 23            DCB              109,97,116,104,35
  696 0000042E 6A 75 73 
              74 23            DCB              106,117,115,116,35
  697 00000433 73 74 65 
              70 23            DCB              115,116,101,112,35
  698 00000438 74 65 72 
              6D 23            DCB              116,101,114,109,35
  699 0000043D 70 6F 73 
              65 23            DCB              112,111,115,101,35
  700 00000442 74 72 69 
              6D 23            DCB              116,114,105,109,35
  701 00000447 76 69 73 
              61 23            DCB              118,105,115,97,35
  702 0000044C 6E 65 61 
              72 23            DCB              110,101,97,114,35
  703 00000451 6E 61 69 
              6C 23            DCB              110,97,105,108,35
  704 00000456 70 6F 73 
              74 23            DCB              112,111,115,116,35
  705 0000045B 73 68 75 
              74 23            DCB              115,104,117,116,35
  706 00000460 76 65 73 
              74 23            DCB              118,101,115,116,35



ARM Macro Assembler    Page 18 


  707 00000465 73 74 61 
              79 23            DCB              115,116,97,121,35
  708 0000046A 70 6C 75 
              67 23            DCB              112,108,117,103,35
  709 0000046F 73 6F 72 
              74 23            DCB              115,111,114,116,35
  710 00000474 73 65 6C 
              6C 23            DCB              115,101,108,108,35
  711 00000479 70 75 6C 
              6C 23            DCB              112,117,108,108,35
  712 0000047E 74 75 72 
              6E 23            DCB              116,117,114,110,35
  713 00000483 6C 65 6E 
              64 23            DCB              108,101,110,100,35
  714 00000488 6D 61 6B 
              65 23            DCB              109,97,107,101,35
  715 0000048D 74 79 70 
              65 23            DCB              116,121,112,101,35
  716 00000492 77 69 73 
              68 23            DCB              119,105,115,104,35
  717 00000497 6D 65 61 
              6E 23            DCB              109,101,97,110,35
  718 0000049C 74 6F 6F 
              6C 23            DCB              116,111,111,108,35
  719 000004A1 6E 65 65 
              64 23            DCB              110,101,101,100,35
  720 000004A6 6A 6F 69 
              6E 23            DCB              106,111,105,110,35
  721 000004AB 74 65 6E 
              64 23            DCB              116,101,110,100,35
  722 000004B0 6C 6F 63 
              6B 23            DCB              108,111,99,107,35
  723 000004B5 74 68 61 
              6E 23            DCB              116,104,97,110,35
  724 000004BA 73 6B 69 
              70 23            DCB              115,107,105,112,35
  725 000004BF 72 61 74 
              65 23            DCB              114,97,116,101,35
  726 000004C4 6E 6F 74 
              65 23            DCB              110,111,116,101,35
  727 000004C9 73 6C 75 
              6D 23            DCB              115,108,117,109,35
  728 000004CE 65 61 72 
              6E 23            DCB              101,97,114,110,35
  729 000004D3 64 6F 73 
              65 23            DCB              100,111,115,101,35
  730 000004D8 67 69 76 
              65 23            DCB              103,105,118,101,35
  731 000004DD 62 69 6C 
              6C 23            DCB              98,105,108,108,35
  732 000004E2 68 6F 6C 
              64 23            DCB              104,111,108,100,35
  733 000004E7 62 65 61 
              72 23            DCB              98,101,97,114,35
  734 000004EC 66 69 6C 
              6C 23            DCB              102,105,108,108,35
  735 000004F1 66 6F 6C 
              64 23            DCB              102,111,108,100,35
  736 000004F6 61 62 6C 



ARM Macro Assembler    Page 19 


              65 23            DCB              97,98,108,101,35
  737 000004FB 66 61 6C 
              6C 23            DCB              102,97,108,108,35
  738 00000500 68 61 76 
              65 23            DCB              104,97,118,101,35
  739 00000505 64 65 65 
              6D 23            DCB              100,101,101,109,35
  740 0000050A 65 76 65 
              6E 23            DCB              101,118,101,110,35
  741 0000050F 68 6F 73 
              74 23            DCB              104,111,115,116,35
  742 00000514 68 69 72 
              65 23            DCB              104,105,114,101,35
  743 00000519 62 65 61 
              72 23            DCB              98,101,97,114,35
  744 0000051E 64 75 74 
              79 23            DCB              100,117,116,121,35
  745 00000523 66 61 72 
              65 23            DCB              102,97,114,101,35
  746 00000528 68 6F 6C 
              65 23            DCB              104,111,108,101,35
  747 0000052D 63 6F 64 
              65 23            DCB              99,111,100,101,35
  748 00000532 62 6F 77 
              6C 23            DCB              98,111,119,108,35
  749 00000537 64 72 61 
              77 23            DCB              100,114,97,119,35
  750 0000053C 67 6C 61 
              64 23            DCB              103,108,97,100,35
  751 00000541 66 69 72 
              6D 23            DCB              102,105,114,109,35
  752 00000546 66 6C 61 
              67 23            DCB              102,108,97,103,35
  753 0000054B 64 65 65 
              70 23            DCB              100,101,101,112,35
  754 00000550 68 61 75 
              6C 23            DCB              104,97,117,108,35
  755 00000555 68 61 6C 
              6C 23            DCB              104,97,108,108,35
  756 0000055A 62 61 72 
              65 23            DCB              98,97,114,101,35
  757 0000055F 63 72 6F 
              70 23            DCB              99,114,111,112,35
  758 00000564 66 65 65 
              6C 23            DCB              102,101,101,108,35
  759 00000569 64 69 76 
              65 23            DCB              100,105,118,101,35
  760 0000056E 68 75 72 
              74 23            DCB              104,117,114,116,35
  761 00000573 62 75 6C 
              6B 23            DCB              98,117,108,107,35
  762 00000578 62 75 6C 
              6B 23            DCB              98,117,108,107,35
  763 0000057D 68 69 6B 
              65 23            DCB              104,105,107,101,35
  764 00000582 61 77 61 
              79 23            DCB              97,119,97,121,35
  765 00000587 61 77 61 
              79 23            DCB              97,119,97,121,35



ARM Macro Assembler    Page 20 


  766 0000058C 64 72 69 
              70 23            DCB              100,114,105,112,35
  767 00000591 64 72 75 
              67 23            DCB              100,114,117,103,35
  768 00000596 63 61 72 
              65 23            DCB              99,97,114,101,35
  769 0000059B 68 65 61 
              64 23            DCB              104,101,97,100,35
  770 000005A0 64 69 72 
              74 23            DCB              100,105,114,116,35
  771 000005A5 67 61 74 
              65 23            DCB              103,97,116,101,35
  772 000005AA 62 69 74 
              65 23            DCB              98,105,116,101,35
  773 000005AF 68 6F 70 
              65 23            DCB              104,111,112,101,35
  774 000005B4 65 61 72 
              6E 23            DCB              101,97,114,110,35
  775 000005B9 66 69 6E 
              65 23            DCB              102,105,110,101,35
  776 000005BE 62 69 6C 
              6C 23            DCB              98,105,108,108,35
  777 000005C3 62 65 6C 
              6C 23            DCB              98,101,108,108,35
  778 000005C8 63 6F 70 
              79 23            DCB              99,111,112,121,35
  779 000005CD 65 6E 76 
              79 23            DCB              101,110,118,121,35
  780 000005D2 63 6F 73 
              74 23            DCB              99,111,115,116,35
  781 000005D7 66 69 6C 
              65 23            DCB              102,105,108,101,35
  782 000005DC 65 61 73 
              79 23            DCB              101,97,115,121,35
  783 000005E1 65 61 73 
              79 23            DCB              101,97,115,121,35
  784 000005E6 64 61 6D 
              70 23            DCB              100,97,109,112,35
  785 000005EB 68 6F 75 
              72 23            DCB              104,111,117,114,35
  786 000005F0 66 61 69 
              6C 23            DCB              102,97,105,108,35
  787 000005F5 63 6F 7A 
              79 23            DCB              99,111,122,121,35
  788 000005FA 63 75 72 
              62 23            DCB              99,117,114,98,35
  789 000005FF 63 75 72 
              62 23            DCB              99,117,114,98,35
  790 00000604 63 69 74 
              65 23            DCB              99,105,116,101,35
  791 00000609 67 61 69 
              6E 23            DCB              103,97,105,110,35
  792 0000060E 66 61 63 
              65 23            DCB              102,97,99,101,35
  793 00000613 66 75 65 
              6C 23            DCB              102,117,101,108,35
  794 00000618 66 75 65 
              6C 23            DCB              102,117,101,108,35
  795 0000061D 68 65 61 



ARM Macro Assembler    Page 21 


              74 23            DCB              104,101,97,116,35
  796 00000622 68 6F 6C 
              64 23            DCB              104,111,108,100,35
  797 00000627 63 6F 72 
              6E 23            DCB              99,111,114,110,35
  798 0000062C 65 61 73 
              65 23            DCB              101,97,115,101,35
  799 00000631 66 61 72 
              65 23            DCB              102,97,114,101,35
  800 00000636 63 68 65 
              66 23            DCB              99,104,101,102,35
  801 0000063B 66 65 61 
              74 23            DCB              102,101,97,116,35
  802 00000640 66 6F 72 
              6D 23            DCB              102,111,114,109,35
  803 00000645 66 75 6E 
              64 23            DCB              102,117,110,100,35
  804 0000064A 66 75 6E 
              64 23            DCB              102,117,110,100,35
  805 0000064F 64 65 66 
              79 23            DCB              100,101,102,121,35
  806 00000654 63 68 65 
              66 23            DCB              99,104,101,102,35
  807 00000659 68 6F 73 
              74 23            DCB              104,111,115,116,35
  808 0000065E 68 61 6C 
              74 23            DCB              104,97,108,116,35
  809 00000663 61 72 65 
              61 23            DCB              97,114,101,97,35
  810 00000668 66 61 63 
              65 23            DCB              102,97,99,101,35
  811 0000066D 63 6C 61 
              79 23            DCB              99,108,97,121,35
  812 00000672 66 69 6E 
              64 23            DCB              102,105,110,100,35
  813 00000677 62 6F 6E 
              64 23            DCB              98,111,110,100,35
  814 0000067C 66 69 6C 
              6C 23            DCB              102,105,108,108,35
  815 00000681 62 6F 6F 
              6B 23            DCB              98,111,111,107,35
  816 00000686 64 65 61 
              6C 23            DCB              100,101,97,108,35
  817 0000068B 63 6F 6C 
              64 23            DCB              99,111,108,100,35
  818 00000690 61 69 64 
              65 23            DCB              97,105,100,101,35
  819 00000695 63 61 66 
              65 23            DCB              99,97,102,101,35
  820 0000069A 63 68 69 
              6E 23            DCB              99,104,105,110,35
  821 0000069F 66 61 6C 
              6C 23            DCB              102,97,108,108,35
  822 000006A4 63 61 73 
              68 23            DCB              99,97,115,104,35
  823 000006A9 63 61 73 
              68 23            DCB              99,97,115,104,35
  824 000006AE 66 6F 72 
              6D 23            DCB              102,111,114,109,35



ARM Macro Assembler    Page 22 


  825 000006B3 6D 65 73 
              73 23            DCB              109,101,115,115,35
  826 000006B8 6C 65 6E 
              64 23            DCB              108,101,110,100,35
  827 000006BD 6D 6F 73 
              74 23            DCB              109,111,115,116,35
  828 000006C2 6D 75 63 
              68 23            DCB              109,117,99,104,35
  829 000006C7 74 6F 75 
              72 23            DCB              116,111,117,114,35
  830 000006CC 6D 65 6E 
              75 23            DCB              109,101,110,117,35
  831 000006D1 70 61 69 
              6E 23            DCB              112,97,105,110,35
  832 000006D6 72 61 74 
              65 23            DCB              114,97,116,101,35
  833 000006DB 6C 61 74 
              65 23            DCB              108,97,116,101,35
  834 000006E0 73 75 63 
              68 23            DCB              115,117,99,104,35
  835 000006E5 72 75 69 
              6E 23            DCB              114,117,105,110,35
  836 000006EA 6C 6F 6E 
              67 23            DCB              108,111,110,103,35
  837 000006EF 73 69 7A 
              65 23            DCB              115,105,122,101,35
  838 000006F4 76 6F 69 
              64 23            DCB              118,111,105,100,35
  839 000006F9 74 6F 6C 
              6C 23            DCB              116,111,108,108,35
  840 000006FE 70 65 61 
              6B 23            DCB              112,101,97,107,35
  841 00000703 6C 61 6E 
              64 23            DCB              108,97,110,100,35
  842 00000708 73 68 6F 
              74 23            DCB              115,104,111,116,35
  843 0000070D 77 61 6E 
              65 23            DCB              119,97,110,101,35
  844 00000712 70 61 73 
              74 23            DCB              112,97,115,116,35
  845 00000717 77 61 67 
              65 23            DCB              119,97,103,101,35
  846 0000071C 6D 65 65 
              74 23            DCB              109,101,101,116,35
  847 00000721 75 72 67 
              65 23            DCB              117,114,103,101,35
  848 00000726 74 61 73 
              6B 23            DCB              116,97,115,107,35
  849 0000072B 72 69 73 
              65 23            DCB              114,105,115,101,35
  850 00000730 70 61 72 
              6B 23            DCB              112,97,114,107,35
  851 00000735 72 6F 6F 
              66 23            DCB              114,111,111,102,35
  852 0000073A 77 6F 72 
              6B 23            DCB              119,111,114,107,35
  853 0000073F 72 65 61 
              6C 23            DCB              114,101,97,108,35
  854 00000744 72 75 73 



ARM Macro Assembler    Page 23 


              68 23            DCB              114,117,115,104,35
  855 00000749 73 74 69 
              72 23            DCB              115,116,105,114,35
  856 0000074E 70 61 73 
              73 23            DCB              112,97,115,115,35
  857 00000753 73 65 61 
              74 23            DCB              115,101,97,116,35
  858 00000758 75 67 6C 
              79 23            DCB              117,103,108,121,35
  859 0000075D 6C 65 61 
              64 23            DCB              108,101,97,100,35
  860 00000762 73 6F 61 
              72 23            DCB              115,111,97,114,35
  861 00000767 6A 6F 69 
              6E 23            DCB              106,111,105,110,35
  862 0000076C 6C 65 61 
              64 23            DCB              108,101,97,100,35
  863 00000771 73 68 6F 
              77 23            DCB              115,104,111,119,35
  864 00000776 6D 69 6E 
              65 23            DCB              109,105,110,101,35
  865 0000077B 73 69 74 
              65 23            DCB              115,105,116,101,35
  866 00000780 73 74 65 
              70 23            DCB              115,116,101,112,35
  867 00000785 77 61 67 
              65 23            DCB              119,97,103,101,35
  868 0000078A 6D 65 61 
              6C 23            DCB              109,101,97,108,35
  869 0000078F 6D 6F 76 
              65 23            DCB              109,111,118,101,35
  870 00000794 6E 69 63 
              65 23            DCB              110,105,99,101,35
  871 00000799 6D 69 73 
              73 23            DCB              109,105,115,115,35
  872 0000079E 6C 65 73 
              73 23            DCB              108,101,115,115,35
  873 000007A3 6C 65 73 
              73 23            DCB              108,101,115,115,35
  874 000007A8 74 61 6B 
              65 23            DCB              116,97,107,101,35
  875 000007AD 72 65 6E 
              74 23            DCB              114,101,110,116,35
  876 000007B2 6D 6F 76 
              65 23            DCB              109,111,118,101,35
  877 000007B7 73 68 69 
              70 23            DCB              115,104,105,112,35
  878 000007BC 72 75 6E 
              67 23            DCB              114,117,110,103,35
  879 000007C1 57 65 6C 
              6C 23            DCB              87,101,108,108,35
  880 000007C6 6E 65 73 
              74 23            DCB              110,101,115,116,35
  881 000007CB 77 65 65 
              64 23            DCB              119,101,101,100,35
  882 000007D0 77 65 61 
              72 23            DCB              119,101,97,114,35
  883 000007D5 70 6C 61 
              6E 23            DCB              112,108,97,110,35



ARM Macro Assembler    Page 24 


  884 000007DA 6E 65 65 
              64 23            DCB              110,101,101,100,35
  885 000007DF 6E 6F 72 
              6D 23            DCB              110,111,114,109,35
  886 000007E4 73 6F 61 
              72 23            DCB              115,111,97,114,35
  887 000007E9 71 75 69 
              74 23            DCB              113,117,105,116,35
  888 000007EE 74 65 72 
              6D 23            DCB              116,101,114,109,35
  889 000007F3 72 75 73 
              68 23            DCB              114,117,115,104,35
  890 000007F8 73 6F 6D 
              65 23            DCB              115,111,109,101,35
  891 000007FD 73 69 6E 
              6B 23            DCB              115,105,110,107,35
  892 00000802 72 69 63 
              65 23            DCB              114,105,99,101,35
  893 00000807 73 65 65 
              6D 23            DCB              115,101,101,109,35
  894 0000080C 74 6F 6F 
              6C 23            DCB              116,111,111,108,35
  895 00000811 73 75 72 
              65 23            DCB              115,117,114,101,35
  896 00000816 73 77 61 
              70 23            DCB              115,119,97,112,35
  897 0000081B 72 65 61 
              72 23            DCB              114,101,97,114,35
  898 00000820 76 69 65 
              77 23            DCB              118,105,101,119,35
  899 00000825 6C 69 76 
              65 23            DCB              108,105,118,101,35
  900 0000082A 74 72 69 
              70 23            DCB              116,114,105,112,35
  901 0000082F 6C 6F 61 
              6E 23            DCB              108,111,97,110,35
  902 00000834 73 61 6C 
              65 23            DCB              115,97,108,101,35
  903 00000839 6E 61 6D 
              65 23            DCB              110,97,109,101,35
  904 0000083E 72 69 73 
              6B 23            DCB              114,105,115,107,35
  905 00000843 6D 69 6E 
              64 23            DCB              109,105,110,100,35
  906 00000848 6C 61 77 
              6E 23            DCB              108,97,119,110,35
  907 0000084D 74 69 6C 
              65 23            DCB              116,105,108,101,35
  908 00000852 73 68 6F 
              65 23            DCB              115,104,111,101,35
  909 00000857 74 68 65 
              6E 23            DCB              116,104,101,110,35
  910 0000085C 70 61 67 
              65 23            DCB              112,97,103,101,35
  911 00000861 74 61 70 
              65 23            DCB              116,97,112,101,35
  912 00000866 70 6C 61 
              79 23            DCB              112,108,97,121,35
  913 0000086B 73 69 67 



ARM Macro Assembler    Page 25 


              6E 23            DCB              115,105,103,110,35
  914 00000870 72 61 63 
              6B 23            DCB              114,97,99,107,35
  915 00000875 6D 61 74 
              68 23            DCB              109,97,116,104,35
  916 0000087A 6A 75 73 
              74 23            DCB              106,117,115,116,35
  917 0000087F 73 74 65 
              70 23            DCB              115,116,101,112,35
  918 00000884 74 65 72 
              6D 23            DCB              116,101,114,109,35
  919 00000889 70 6F 73 
              65 23            DCB              112,111,115,101,35
  920 0000088E 74 72 69 
              6D 23            DCB              116,114,105,109,35
  921 00000893 76 69 73 
              61 23            DCB              118,105,115,97,35
  922 00000898 6E 65 61 
              72 23            DCB              110,101,97,114,35
  923 0000089D 6E 61 69 
              6C 23            DCB              110,97,105,108,35
  924 000008A2 70 6F 73 
              74 23            DCB              112,111,115,116,35
  925 000008A7 73 68 75 
              74 23            DCB              115,104,117,116,35
  926 000008AC 76 65 73 
              74 23            DCB              118,101,115,116,35
  927 000008B1 73 74 61 
              79 23            DCB              115,116,97,121,35
  928 000008B6 70 6C 75 
              67 23            DCB              112,108,117,103,35
  929 000008BB 73 6F 72 
              74 23            DCB              115,111,114,116,35
  930 000008C0 73 65 6C 
              6C 23            DCB              115,101,108,108,35
  931 000008C5 70 75 6C 
              6C 23            DCB              112,117,108,108,35
  932 000008CA 74 75 72 
              6E 23            DCB              116,117,114,110,35
  933 000008CF 6C 65 6E 
              64 23            DCB              108,101,110,100,35
  934 000008D4 6D 61 6B 
              65 23            DCB              109,97,107,101,35
  935 000008D9 74 79 70 
              65 23            DCB              116,121,112,101,35
  936 000008DE 77 69 73 
              68 23            DCB              119,105,115,104,35
  937 000008E3 6D 65 61 
              6E 23            DCB              109,101,97,110,35
  938 000008E8 74 6F 6F 
              6C 23            DCB              116,111,111,108,35
  939 000008ED 6E 65 65 
              64 23            DCB              110,101,101,100,35
  940 000008F2 6A 6F 69 
              6E 23            DCB              106,111,105,110,35
  941 000008F7 74 65 6E 
              64 23            DCB              116,101,110,100,35
  942 000008FC 6C 6F 63 
              6B 23            DCB              108,111,99,107,35



ARM Macro Assembler    Page 26 


  943 00000901 74 68 61 
              6E 23            DCB              116,104,97,110,35
  944 00000906 73 6B 69 
              70 23            DCB              115,107,105,112,35
  945 0000090B 72 61 74 
              65 23            DCB              114,97,116,101,35
  946 00000910 6E 6F 74 
              65 23            DCB              110,111,116,101,35
  947 00000915 73 6C 75 
              6D 23            DCB              115,108,117,109,35
  948 0000091A 63 75 72 
              62 23            DCB              99,117,114,98,35
  949 0000091F 66 69 6E 
              65 23            DCB              102,105,110,101,35
  950 00000924 72 65 69 
              6E 23            DCB              114,101,105,110,35
  951 00000929 63 72 61 
              6D 23            DCB              99,114,97,109,35
  952 0000092E 68 69 64 
              65 23            DCB              104,105,100,101,35
  953 00000933 73 69 6E 
              6B 23            DCB              115,105,110,107,35
  954 00000938 62 75 72 
              79 23            DCB              98,117,114,121,35
  955 0000093D 65 64 67 
              65 23            DCB              101,100,103,101,35
  956 00000942 77 61 6E 
              65 23            DCB              119,97,110,101,35
  957 00000947 70 61 63 
              65 23            DCB              112,97,99,101,35
  958 0000094C 76 69 65 
              77 23            DCB              118,105,101,119,35
  959 00000951 66 6C 61 
              77 23            DCB              102,108,97,119,35
  960 00000956 74 69 64 
              65 23            DCB              116,105,100,101,35
  961 0000095B 73 69 7A 
              65 23            DCB              115,105,122,101,35
  962 00000960 66 65 65 
              64 23            DCB              102,101,101,100,35
  963 00000965 64 72 61 
              77 23            DCB              100,114,97,119,35
  964 0000096A 62 61 72 
              65 23            DCB              98,97,114,101,35
  965 0000096F 66 75 73 
              65 23            DCB              102,117,115,101,35
  966 00000974 6A 65 73 
              74 23            DCB              106,101,115,116,35
  967 00000979 73 6F 61 
              72 23            DCB              115,111,97,114,35
  968 0000097E 6D 65 72 
              65 23            DCB              109,101,114,101,35
  969 00000983 74 6F 6F 
              6C 23            DCB              116,111,111,108,35
  970 00000988 61 6C 6C 
              79 23            DCB              97,108,108,121,35
  971 0000098D 72 61 72 
              65 23            DCB              114,97,114,101,35
  972 00000992 74 68 75 



ARM Macro Assembler    Page 27 


              73 23            DCB              116,104,117,115,35
  973 00000997 6C 61 73 
              74 23            DCB              108,97,115,116,35
  974 0000099C 6F 61 74 
              68 23            DCB              111,97,116,104,35
  975 000009A1 73 74 61 
              79 23            DCB              115,116,97,121,35
  976 000009A6 6E 6F 74 
              65 23            DCB              110,111,116,101,35
  977 000009AB 70 69 6C 
              65 23            DCB              112,105,108,101,35
  978 000009B0 6D 75 74 
              65 23            DCB              109,117,116,101,35
  979 000009B5 6C 61 73 
              68 23            DCB              108,97,115,104,35
  980 000009BA 62 61 6E 
              6B 23            DCB              98,97,110,107,35
  981 000009BF 6C 6F 6E 
              67 23            DCB              108,111,110,103,35
  982 000009C4         
  983 000009C4         
  984 000009C4         Search_data
  985 000009C4 65 6D 69 
              74 23            DCB              101,109,105,116,35
  986 000009C9 67 75 73 
              68 23            DCB              103,117,115,104,35
  987 000009CE 62 61 72 
              65 23            DCB              98,97,114,101,35
  988 000009D3 67 6C 6F 
              77 23            DCB              103,108,111,119,35
  989 000009D8 76 69 6C 
              65 23            DCB              118,105,108,101,35
  990 000009DD 73 6C 61 
              79 23            DCB              115,108,97,121,35
  991 000009E2 68 6F 6C 
              64 23            DCB              104,111,108,100,35
  992 000009E7 73 65 65 
              70 23            DCB              115,101,101,112,35
  993 000009EC 61 63 69 
              64 23            DCB              97,99,105,100,35
  994 000009F1 76 6F 69 
              64 23            DCB              118,111,105,100,35
  995 000009F6 61 63 68 
              65 23            DCB              97,99,104,101,35
  996 000009FB 73 69 6E 
              6B 23            DCB              115,105,110,107,35
  997 00000A00 73 61 66 
              65 23            DCB              115,97,102,101,35
  998 00000A05 77 65 61 
              6B 23            DCB              119,101,97,107,35
  999 00000A0A 66 61 64 
              65 23            DCB              102,97,100,101,35
 1000 00000A0F 6D 6F 64 
              65 23            DCB              109,111,100,101,35
 1001 00000A14 66 65 61 
              74 23            DCB              102,101,97,116,35
 1002 00000A19 72 74 6C 
              6C 23            DCB              114,116,108,108,35
 1003 00000A1E 74 75 72 



ARM Macro Assembler    Page 28 


              6E 23            DCB              116,117,114,110,35
 1004 00000A23 73 74 69 
              72 23            DCB              115,116,105,114,35
 1005 00000A28 74 69 6E 
              79 23            DCB              116,105,110,121,35
 1006 00000A2D 73 6F 61 
              6B 23            DCB              115,111,97,107,35
 1007 00000A32 76 65 69 
              6E 23            DCB              118,101,105,110,35
 1008 00000A37 72 75 6E 
              67 23            DCB              114,117,110,103,35
 1009 00000A3C 73 6C 61 
              62 23            DCB              115,108,97,98,35
 1010 00000A41 6D 6F 63 
              6B 23            DCB              109,111,99,107,35
 1011 00000A46 6A 65 65 
              72 23            DCB              106,101,101,114,35
 1012 00000A4B 6A 65 73 
              74 23            DCB              106,101,115,116,35
 1013 00000A50 77 61 72 
              79 23            DCB              119,97,114,121,35
 1014 00000A55 68 65 65 
              64 23            DCB              104,101,101,100,35
 1015 00000A5A 64 75 6C 
              6C 23            DCB              100,117,108,108,35
 1016 00000A5F 73 75 72 
              65 23            DCB              115,117,114,101,35
 1017 00000A64 62 6F 64 
              65 23            DCB              98,111,100,101,35
 1018 00000A69 73 74 61 
              62 23            DCB              115,116,97,98,35
 1019 00000A6E 73 65 65 
              6B 23            DCB              115,101,101,107,35
 1020 00000A73 6C 62 65 
              64 23            DCB              108,98,101,100,35
 1021 00000A78 6A 6F 6C 
              74 23            DCB              106,111,108,116,35
 1022 00000A7D 6B 69 6E 
              64 23            DCB              107,105,110,100,35
 1023 00000A82 74 6F 75 
              74 23            DCB              116,111,117,116,35
 1024 00000A87 73 68 65 
              64 23            DCB              115,104,101,100,35
 1025 00000A8C 62 69 61 
              73 23            DCB              98,105,97,115,35
 1026 00000A91 6C 6F 6E 
              67 23            DCB              108,111,110,103,35
 1027 00000A96 72 69 6F 
              74 23            DCB              114,105,111,116,35
 1028 00000A9B 66 6C 65 
              65 23            DCB              102,108,101,101,35
 1029 00000AA0 66 72 65 
              65 23            DCB              102,114,101,101,35
 1030 00000AA5 63 6F 72 
              65 23            DCB              99,111,114,101,35
 1031 00000AAA 77 61 72 
              70 23            DCB              119,97,114,112,35
 1032 00000AAF 73 74 65 
              70 23            DCB              115,116,101,112,35



ARM Macro Assembler    Page 29 


 1033 00000AB4 64 61 75 
              62 23            DCB              100,97,117,98,35
 1034 00000AB9 6C 6F 63 
              6B 23            DCB              108,111,99,107,35
 1035 00000ABE         
 1036 00000ABE         
 1037 00000ABE                 END
Command Line: --debug --xref --cpu=ARM9E --apcs=interwork --depend=.\project.d 
-o.\project.o -IC:\Keil\ARM\RV31\INC -IC:\Keil\ARM\CMSIS\Include --predefine="_
_EVAL SETA 1" --list=.\project.lst project.s



ARM Macro Assembler    Page 1 Alphabetic symbol ordering
Relocatable symbols

ARMex 00000000

Symbol: ARMex
   Definitions
      At line 25 in file project.s
   Uses
      None
Comment: ARMex unused
Compare_Binary 00000234

Symbol: Compare_Binary
   Definitions
      At line 324 in file project.s
   Uses
      At line 306 in file project.s
      At line 366 in file project.s

Compare_i 00000114

Symbol: Compare_i
   Definitions
      At line 182 in file project.s
   Uses
      At line 164 in file project.s
      At line 205 in file project.s
      At line 249 in file project.s

Compare_j 00000160

Symbol: Compare_j
   Definitions
      At line 224 in file project.s
   Uses
      At line 203 in file project.s
      At line 206 in file project.s
      At line 245 in file project.s

END_PROGRAM 00000348

Symbol: END_PROGRAM
   Definitions
      At line 469 in file project.s
   Uses
      At line 466 in file project.s
Comment: END_PROGRAM used once
Find 000002B4

Symbol: Find
   Definitions
      At line 384 in file project.s
   Uses
      At line 364 in file project.s
      At line 390 in file project.s

Find2 000002C8

Symbol: Find2
   Definitions
      At line 393 in file project.s



ARM Macro Assembler    Page 2 Alphabetic symbol ordering
Relocatable symbols

   Uses
      At line 391 in file project.s
      At line 400 in file project.s

Load 00000014

Symbol: Load
   Definitions
      At line 53 in file project.s
   Uses
      At line 77 in file project.s
      At line 125 in file project.s

Result_address 00000350

Symbol: Result_address
   Definitions
      At line 475 in file project.s
   Uses
      At line 31 in file project.s
      At line 280 in file project.s
      At line 301 in file project.s

Result_address1 0000034C

Symbol: Result_address1
   Definitions
      At line 474 in file project.s
   Uses
      At line 281 in file project.s
Comment: Result_address1 used once
Search 000001D0

Symbol: Search
   Definitions
      At line 275 in file project.s
   Uses
      At line 103 in file project.s
      At line 329 in file project.s
      At line 401 in file project.s

Setting 00000054

Symbol: Setting
   Definitions
      At line 95 in file project.s
   Uses
      At line 75 in file project.s
      At line 109 in file project.s
      At line 257 in file project.s

Start 00000000

Symbol: Start
   Definitions
      At line 28 in file project.s
   Uses
      None
Comment: Start unused



ARM Macro Assembler    Page 3 Alphabetic symbol ordering
Relocatable symbols

Store 000002E0

Symbol: Store
   Definitions
      At line 419 in file project.s
   Uses
      At line 284 in file project.s
      At line 467 in file project.s

14 symbols



ARM Macro Assembler    Page 1 Alphabetic symbol ordering
Relocatable symbols

Random_data 00000000

Symbol: Random_data
   Definitions
      At line 481 in file project.s
   Uses
      At line 29 in file project.s
Comment: Random_data used once
Search_data 000009C4

Symbol: Search_data
   Definitions
      At line 984 in file project.s
   Uses
      At line 30 in file project.s
      At line 121 in file project.s

data 00000000

Symbol: data
   Definitions
      At line 480 in file project.s
   Uses
      None
Comment: data unused
3 symbols
350 symbols in table
